; Function Attrs: nounwind uwtable
define void @Kit_DsdTruthPartial(ptr noundef %0, ptr noundef %1, ptr noundef writeonly captures(none) %2, i32 noundef %3) local_unnamed_addr #0 {
  %5 = tail call ptr @Kit_DsdTruthComputeOne(ptr noundef %0, ptr noundef %1, i32 noundef %3)
  %6 = load i16, ptr %1, align 8, !tbaa !34
  %7 = zext i16 %6 to i32
  %8 = icmp ult i16 %6, 6
  %9 = add nsw i32 %7, -5
  %10 = shl nuw i32 1, %9
  %spec.select.i = select i1 %8, i32 1, i32 %10
  %11 = icmp sgt i32 %spec.select.i, 0
  br i1 %11, label %select.unfold.preheader.i, label %Kit_TruthCopy.exit

select.unfold.preheader.i:                        ; preds = %4
  %12 = zext nneg i32 %spec.select.i to i64
  br label %select.unfold.i

select.unfold.i:                                  ; preds = %select.unfold.i, %select.unfold.preheader.i
  %indvars.iv.i = phi i64 [ %12, %select.unfold.preheader.i ], [ %indvars.iv.next.i, %select.unfold.i ]
  %indvars.iv.next.i = add nsw i64 %indvars.iv.i, -1
  %13 = getelementptr inbounds nuw i32, ptr %5, i64 %indvars.iv.next.i
  %14 = load i32, ptr %13, align 4, !tbaa !20
  %15 = getelementptr inbounds nuw i32, ptr %2, i64 %indvars.iv.next.i
  store i32 %14, ptr %15, align 4, !tbaa !20
  %16 = icmp samesign ugt i64 %indvars.iv.i, 1
  br i1 %16, label %select.unfold.i, label %Kit_TruthCopy.exit, !llvm.loop !56

Kit_TruthCopy.exit:                               ; preds = %select.unfold.i, %4
  ret void
}